; ModuleID = 'source-C-CXX/56/622.c'
source_filename = "source-C-CXX/56/622.c"
target datalayout = "e-m:e-p270:32:32-p271:32:32-p272:64:64-i64:64-f80:128-n8:16:32:64-S128"
target triple = "x86_64-pc-linux-gnu"

@.str = private unnamed_addr constant [3 x i8] c"%d\00", align 1
@.str.1 = private unnamed_addr constant [3 x i8] c"%s\00", align 1

; Function Attrs: nofree nounwind sspstrong uwtable
define dso_local i32 @main() local_unnamed_addr #0 {
  %1 = alloca i32, align 4
  %2 = alloca [33 x i8], align 16
  %3 = bitcast i32* %1 to i8*
  call void @llvm.lifetime.start.p0i8(i64 4, i8* nonnull %3) #5
  %4 = getelementptr inbounds [33 x i8], [33 x i8]* %2, i64 0, i64 0
  call void @llvm.lifetime.start.p0i8(i64 33, i8* nonnull %4) #5
  %5 = call i32 (i8*, ...) @__isoc99_scanf(i8* getelementptr inbounds ([3 x i8], [3 x i8]* @.str, i64 0, i64 0), i32* nonnull %1)
  %6 = load i32, i32* %1, align 4, !tbaa !5
  %7 = icmp sgt i32 %6, 0
  br i1 %7, label %9, label %8

8:                                                ; preds = %55, %0
  call void @llvm.lifetime.end.p0i8(i64 33, i8* nonnull %4) #5
  call void @llvm.lifetime.end.p0i8(i64 4, i8* nonnull %3) #5
  ret i32 0

9:                                                ; preds = %0, %55
  %10 = phi i32 [ %56, %55 ], [ 0, %0 ]
  %11 = call i32 (i8*, ...) @__isoc99_scanf(i8* getelementptr inbounds ([3 x i8], [3 x i8]* @.str.1, i64 0, i64 0), i8* nonnull %4)
  %12 = call i64 @strlen(i8* noundef nonnull %4) #6
  %13 = add i64 %12, -2
  %14 = getelementptr inbounds [33 x i8], [33 x i8]* %2, i64 0, i64 %13
  %15 = load i8, i8* %14, align 1, !tbaa !9
  %16 = icmp eq i8 %15, 101
  br i1 %16, label %17, label %24

17:                                               ; preds = %9
  %18 = add i64 %12, -1
  %19 = getelementptr inbounds [33 x i8], [33 x i8]* %2, i64 0, i64 %18
  %20 = load i8, i8* %19, align 1, !tbaa !9
  %21 = icmp eq i8 %20, 114
  br i1 %21, label %22, label %24

22:                                               ; preds = %17
  store i8 0, i8* %14, align 1, !tbaa !9
  %23 = call i32 @puts(i8* nonnull %4)
  br label %24

24:                                               ; preds = %22, %17, %9
  %25 = call i64 @strlen(i8* noundef nonnull %4) #6
  %26 = add i64 %25, -2
  %27 = getelementptr inbounds [33 x i8], [33 x i8]* %2, i64 0, i64 %26
  %28 = load i8, i8* %27, align 1, !tbaa !9
  %29 = icmp eq i8 %28, 108
  br i1 %29, label %30, label %37

30:                                               ; preds = %24
  %31 = add i64 %25, -1
  %32 = getelementptr inbounds [33 x i8], [33 x i8]* %2, i64 0, i64 %31
  %33 = load i8, i8* %32, align 1, !tbaa !9
  %34 = icmp eq i8 %33, 121
  br i1 %34, label %35, label %37

35:                                               ; preds = %30
  store i8 0, i8* %27, align 1, !tbaa !9
  %36 = call i32 @puts(i8* nonnull %4)
  br label %37

37:                                               ; preds = %35, %30, %24
  %38 = call i64 @strlen(i8* noundef nonnull %4) #6
  %39 = add i64 %38, -3
  %40 = getelementptr inbounds [33 x i8], [33 x i8]* %2, i64 0, i64 %39
  %41 = load i8, i8* %40, align 1, !tbaa !9
  %42 = icmp eq i8 %41, 105
  br i1 %42, label %43, label %55

43:                                               ; preds = %37
  %44 = add i64 %38, -2
  %45 = getelementptr inbounds [33 x i8], [33 x i8]* %2, i64 0, i64 %44
  %46 = load i8, i8* %45, align 1, !tbaa !9
  %47 = icmp eq i8 %46, 110
  br i1 %47, label %48, label %55

48:                                               ; preds = %43
  %49 = add i64 %38, -1
  %50 = getelementptr inbounds [33 x i8], [33 x i8]* %2, i64 0, i64 %49
  %51 = load i8, i8* %50, align 1, !tbaa !9
  %52 = icmp eq i8 %51, 103
  br i1 %52, label %53, label %55

53:                                               ; preds = %48
  store i8 0, i8* %40, align 1, !tbaa !9
  %54 = call i32 @puts(i8* nonnull %4)
  br label %55

55:                                               ; preds = %37, %43, %48, %53
  %56 = add nuw nsw i32 %10, 1
  %57 = load i32, i32* %1, align 4, !tbaa !5
  %58 = icmp slt i32 %56, %57
  br i1 %58, label %9, label %8, !llvm.loop !10
}

; Function Attrs: argmemonly mustprogress nofree nosync nounwind willreturn
declare void @llvm.lifetime.start.p0i8(i64 immarg, i8* nocapture) #1

; Function Attrs: nofree nounwind
declare noundef i32 @__isoc99_scanf(i8* nocapture noundef readonly, ...) local_unnamed_addr #2

; Function Attrs: argmemonly mustprogress nofree nounwind readonly willreturn
declare i64 @strlen(i8* nocapture) local_unnamed_addr #3

; Function Attrs: argmemonly mustprogress nofree nosync nounwind willreturn
declare void @llvm.lifetime.end.p0i8(i64 immarg, i8* nocapture) #1

; Function Attrs: nofree nounwind
declare noundef i32 @puts(i8* nocapture noundef readonly) local_unnamed_addr #4


!llvm.module.flags = !{!0, !1, !2, !3}
!llvm.ident = !{!4}

!0 = !{i32 1, !"wchar_size", i32 4}
!1 = !{i32 7, !"PIC Level", i32 2}
!2 = !{i32 7, !"PIE Level", i32 2}
!3 = !{i32 7, !"uwtable", i32 1}
!4 = !{!"clang version 13.0.0"}
!5 = !{!6, !6, i64 0}
!6 = !{!"int", !7, i64 0}
!7 = !{!"omnipotent char", !8, i64 0}
!8 = !{!"Simple C/C++ TBAA"}
!9 = !{!7, !7, i64 0}
!10 = distinct !{!10, !11}
!11 = !{!"llvm.loop.mustprogress"}
